
_main:

;GSM_Test.c,51 :: 		void main()
;GSM_Test.c,53 :: 		config();                         //Appel le sous-programme
	CALL        _config+0, 0
;GSM_Test.c,54 :: 		while(1)
L_main0:
;GSM_Test.c,56 :: 		GSM();                  //Appel au sous-programme
	CALL        _GSM+0, 0
;GSM_Test.c,57 :: 		}
	GOTO        L_main0
;GSM_Test.c,58 :: 		}
L_end_main:
	GOTO        $+0
; end of _main

_config:

;GSM_Test.c,59 :: 		void config()
;GSM_Test.c,61 :: 		ANSELA=0x00;                      //Passe toutes les broches en digital
	CLRF        ANSELA+0 
;GSM_Test.c,62 :: 		ANSELB=0x00;
	CLRF        ANSELB+0 
;GSM_Test.c,63 :: 		ANSELC=0x00;
	CLRF        ANSELC+0 
;GSM_Test.c,64 :: 		TRISA=0xFF;                       //0b11111111
	MOVLW       255
	MOVWF       TRISA+0 
;GSM_Test.c,65 :: 		TRISB=0x13;                       //0b10000011
	MOVLW       19
	MOVWF       TRISB+0 
;GSM_Test.c,66 :: 		TRISC=0x90;                       //0b10010000
	MOVLW       144
	MOVWF       TRISC+0 
;GSM_Test.c,67 :: 		TRISE=0xFF;                       //0x11111111
	MOVLW       255
	MOVWF       TRISE+0 
;GSM_Test.c,69 :: 		Lcd_Init();                       //Initialisation LCD
	CALL        _Lcd_Init+0, 0
;GSM_Test.c,70 :: 		Lcd_Cmd(_LCD_CLEAR);              //Reset afficheur LCD
	MOVLW       1
	MOVWF       FARG_Lcd_Cmd_out_char+0 
	CALL        _Lcd_Cmd+0, 0
;GSM_Test.c,71 :: 		Lcd_Cmd(_LCD_CURSOR_OFF);         //Désactive le curseur
	MOVLW       12
	MOVWF       FARG_Lcd_Cmd_out_char+0 
	CALL        _Lcd_Cmd+0, 0
;GSM_Test.c,73 :: 		UART1_Init(9600);                 //Initialisation GSM
	BSF         BAUDCON+0, 3, 0
	CLRF        SPBRGH+0 
	MOVLW       207
	MOVWF       SPBRG+0 
	BSF         TXSTA+0, 2, 0
	CALL        _UART1_Init+0, 0
;GSM_Test.c,74 :: 		UART2_Init(9600);                 //Initialisation RS232
	BSF         BAUDCON2+0, 3, 0
	CLRF        SPBRGH2+0 
	MOVLW       207
	MOVWF       SPBRG2+0 
	BSF         TXSTA2+0, 2, 0
	CALL        _UART2_Init+0, 0
;GSM_Test.c,75 :: 		}
L_end_config:
	RETURN      0
; end of _config

_GSM:

;GSM_Test.c,76 :: 		void GSM()
;GSM_Test.c,78 :: 		if(BP2==0)
	BTFSC       PORTA+0, 2 
	GOTO        L_GSM2
;GSM_Test.c,80 :: 		UART2_Write('A');
	MOVLW       65
	MOVWF       FARG_UART2_Write_data_+0 
	CALL        _UART2_Write+0, 0
;GSM_Test.c,81 :: 		delay_ms(250);
	MOVLW       3
	MOVWF       R11, 0
	MOVLW       138
	MOVWF       R12, 0
	MOVLW       85
	MOVWF       R13, 0
L_GSM3:
	DECFSZ      R13, 1, 1
	BRA         L_GSM3
	DECFSZ      R12, 1, 1
	BRA         L_GSM3
	DECFSZ      R11, 1, 1
	BRA         L_GSM3
	NOP
	NOP
;GSM_Test.c,82 :: 		}
L_GSM2:
;GSM_Test.c,83 :: 		if(BP1==0)
	BTFSC       PORTA+0, 1 
	GOTO        L_GSM4
;GSM_Test.c,85 :: 		UART1_Write_Text("AT");
	MOVLW       ?lstr1_GSM_Test+0
	MOVWF       FARG_UART1_Write_Text_uart_text+0 
	MOVLW       hi_addr(?lstr1_GSM_Test+0)
	MOVWF       FARG_UART1_Write_Text_uart_text+1 
	CALL        _UART1_Write_Text+0, 0
;GSM_Test.c,86 :: 		retchar();
	CALL        _retchar+0, 0
;GSM_Test.c,87 :: 		delay_ms(2000);
	MOVLW       21
	MOVWF       R11, 0
	MOVLW       75
	MOVWF       R12, 0
	MOVLW       190
	MOVWF       R13, 0
L_GSM5:
	DECFSZ      R13, 1, 1
	BRA         L_GSM5
	DECFSZ      R12, 1, 1
	BRA         L_GSM5
	DECFSZ      R11, 1, 1
	BRA         L_GSM5
	NOP
;GSM_Test.c,88 :: 		UART1_Write_Text("AT+CPIN=1234");
	MOVLW       ?lstr2_GSM_Test+0
	MOVWF       FARG_UART1_Write_Text_uart_text+0 
	MOVLW       hi_addr(?lstr2_GSM_Test+0)
	MOVWF       FARG_UART1_Write_Text_uart_text+1 
	CALL        _UART1_Write_Text+0, 0
;GSM_Test.c,89 :: 		retchar();
	CALL        _retchar+0, 0
;GSM_Test.c,90 :: 		delay_ms(4000);
	MOVLW       41
	MOVWF       R11, 0
	MOVLW       150
	MOVWF       R12, 0
	MOVLW       127
	MOVWF       R13, 0
L_GSM6:
	DECFSZ      R13, 1, 1
	BRA         L_GSM6
	DECFSZ      R12, 1, 1
	BRA         L_GSM6
	DECFSZ      R11, 1, 1
	BRA         L_GSM6
;GSM_Test.c,91 :: 		UART1_Write_Text("AT+CMGD=4");    //Transmet le texte au GSM(Delete les SMS)
	MOVLW       ?lstr3_GSM_Test+0
	MOVWF       FARG_UART1_Write_Text_uart_text+0 
	MOVLW       hi_addr(?lstr3_GSM_Test+0)
	MOVWF       FARG_UART1_Write_Text_uart_text+1 
	CALL        _UART1_Write_Text+0, 0
;GSM_Test.c,92 :: 		retchar();
	CALL        _retchar+0, 0
;GSM_Test.c,93 :: 		delay_ms(2000);
	MOVLW       21
	MOVWF       R11, 0
	MOVLW       75
	MOVWF       R12, 0
	MOVLW       190
	MOVWF       R13, 0
L_GSM7:
	DECFSZ      R13, 1, 1
	BRA         L_GSM7
	DECFSZ      R12, 1, 1
	BRA         L_GSM7
	DECFSZ      R11, 1, 1
	BRA         L_GSM7
	NOP
;GSM_Test.c,94 :: 		UART1_Write_Text("AT+CMGF=1");
	MOVLW       ?lstr4_GSM_Test+0
	MOVWF       FARG_UART1_Write_Text_uart_text+0 
	MOVLW       hi_addr(?lstr4_GSM_Test+0)
	MOVWF       FARG_UART1_Write_Text_uart_text+1 
	CALL        _UART1_Write_Text+0, 0
;GSM_Test.c,95 :: 		retchar();
	CALL        _retchar+0, 0
;GSM_Test.c,96 :: 		delay_ms(2000);
	MOVLW       21
	MOVWF       R11, 0
	MOVLW       75
	MOVWF       R12, 0
	MOVLW       190
	MOVWF       R13, 0
L_GSM8:
	DECFSZ      R13, 1, 1
	BRA         L_GSM8
	DECFSZ      R12, 1, 1
	BRA         L_GSM8
	DECFSZ      R11, 1, 1
	BRA         L_GSM8
	NOP
;GSM_Test.c,97 :: 		UART1_Write_Text("AT+CMGS=0648200953");
	MOVLW       ?lstr5_GSM_Test+0
	MOVWF       FARG_UART1_Write_Text_uart_text+0 
	MOVLW       hi_addr(?lstr5_GSM_Test+0)
	MOVWF       FARG_UART1_Write_Text_uart_text+1 
	CALL        _UART1_Write_Text+0, 0
;GSM_Test.c,98 :: 		retchar();
	CALL        _retchar+0, 0
;GSM_Test.c,99 :: 		delay_ms(2000);
	MOVLW       21
	MOVWF       R11, 0
	MOVLW       75
	MOVWF       R12, 0
	MOVLW       190
	MOVWF       R13, 0
L_GSM9:
	DECFSZ      R13, 1, 1
	BRA         L_GSM9
	DECFSZ      R12, 1, 1
	BRA         L_GSM9
	DECFSZ      R11, 1, 1
	BRA         L_GSM9
	NOP
;GSM_Test.c,100 :: 		UART1_Write_Text("Essai Carte");
	MOVLW       ?lstr6_GSM_Test+0
	MOVWF       FARG_UART1_Write_Text_uart_text+0 
	MOVLW       hi_addr(?lstr6_GSM_Test+0)
	MOVWF       FARG_UART1_Write_Text_uart_text+1 
	CALL        _UART1_Write_Text+0, 0
;GSM_Test.c,101 :: 		retchar();
	CALL        _retchar+0, 0
;GSM_Test.c,102 :: 		delay_ms(2000);
	MOVLW       21
	MOVWF       R11, 0
	MOVLW       75
	MOVWF       R12, 0
	MOVLW       190
	MOVWF       R13, 0
L_GSM10:
	DECFSZ      R13, 1, 1
	BRA         L_GSM10
	DECFSZ      R12, 1, 1
	BRA         L_GSM10
	DECFSZ      R11, 1, 1
	BRA         L_GSM10
	NOP
;GSM_Test.c,103 :: 		UART1_Write(26);
	MOVLW       26
	MOVWF       FARG_UART1_Write_data_+0 
	CALL        _UART1_Write+0, 0
;GSM_Test.c,104 :: 		retchar();
	CALL        _retchar+0, 0
;GSM_Test.c,105 :: 		delay_ms(2000);
	MOVLW       21
	MOVWF       R11, 0
	MOVLW       75
	MOVWF       R12, 0
	MOVLW       190
	MOVWF       R13, 0
L_GSM11:
	DECFSZ      R13, 1, 1
	BRA         L_GSM11
	DECFSZ      R12, 1, 1
	BRA         L_GSM11
	DECFSZ      R11, 1, 1
	BRA         L_GSM11
	NOP
;GSM_Test.c,106 :: 		}
L_GSM4:
;GSM_Test.c,107 :: 		}
L_end_GSM:
	RETURN      0
; end of _GSM

_retchar:

;GSM_Test.c,108 :: 		void retchar()
;GSM_Test.c,110 :: 		UART1_Write(13);
	MOVLW       13
	MOVWF       FARG_UART1_Write_data_+0 
	CALL        _UART1_Write+0, 0
;GSM_Test.c,111 :: 		UART1_Write(10);
	MOVLW       10
	MOVWF       FARG_UART1_Write_data_+0 
	CALL        _UART1_Write+0, 0
;GSM_Test.c,112 :: 		}
L_end_retchar:
	RETURN      0
; end of _retchar
